target datalayout = "e-m:e-p270:32:32-p271:32:32-p272:64:64-i64:64-i128:128-f80:128-n8:16:32:64-S128"
target triple = "x86_64-pc-linux-gnu"

%struct.acquireLocksOnSubLinks_context = type { i8 }
%struct.Node = type { i32 }
%struct.Expr = type { i32 }
%struct.SubLink = type { %struct.Expr, i32, i32, ptr, ptr, ptr, i32 }

; Function Attrs: nounwind uwtable
define internal zeroext i1 @acquireLocksOnSubLinks(ptr noundef %0, ptr noundef %1) #0 {
  %3 = alloca i1, align 1
  %4 = alloca ptr, align 8
  %5 = alloca ptr, align 8
  %6 = alloca ptr, align 8
  store ptr %0, ptr %4, align 8
  store ptr %1, ptr %5, align 8
  %7 = load ptr, ptr %4, align 8
  %8 = icmp eq ptr %7, null
  br i1 %8, label %9, label %10

9:                                                ; preds = %2
  store i1 false, ptr %3, align 1
  br label %28

10:                                               ; preds = %2
  %11 = load ptr, ptr %4, align 8
  %12 = getelementptr inbounds nuw %struct.Node, ptr %11, i32 0, i32 0
  %13 = load i32, ptr %12, align 4
  %14 = icmp eq i32 %13, 22
  br i1 %14, label %15, label %24

15:                                               ; preds = %10
  call void @llvm.lifetime.start.p0(i64 8, ptr %6) #9
  %16 = load ptr, ptr %4, align 8
  store ptr %16, ptr %6, align 8
  %17 = load ptr, ptr %6, align 8
  %18 = getelementptr inbounds nuw %struct.SubLink, ptr %17, i32 0, i32 5
  %19 = load ptr, ptr %18, align 8
  %20 = load ptr, ptr %5, align 8
  %21 = getelementptr inbounds nuw %struct.acquireLocksOnSubLinks_context, ptr %20, i32 0, i32 0
  %22 = load i8, ptr %21, align 1, !range !4, !noundef !5
  %23 = trunc i8 %22 to i1
  call void @AcquireRewriteLocks(ptr noundef %19, i1 noundef zeroext %23, i1 noundef zeroext false)
  call void @llvm.lifetime.end.p0(i64 8, ptr %6) #9
  br label %24

24:                                               ; preds = %15, %10
  %25 = load ptr, ptr %4, align 8
  %26 = load ptr, ptr %5, align 8
  %27 = call zeroext i1 @expression_tree_walker_impl(ptr noundef %25, ptr noundef @acquireLocksOnSubLinks, ptr noundef %26)
  store i1 %27, ptr %3, align 1
  br label %28

28:                                               ; preds = %24, %9
  %29 = load i1, ptr %3, align 1
  ret i1 %29
}