; Function Attrs: nounwind uwtable
define internal zeroext i1 @acquireLocksOnSubLinks(ptr noundef %0, ptr noundef %1) #0 {
  %3 = icmp eq ptr %0, null
  br i1 %3, label %14, label %4

4:                                                ; preds = %2
  %5 = load i32, ptr %0, align 4
  %6 = icmp eq i32 %5, 22
  br i1 %6, label %7, label %12

7:                                                ; preds = %4
  %8 = getelementptr inbounds nuw i8, ptr %0, i64 32
  %9 = load ptr, ptr %8, align 8
  %10 = load i8, ptr %1, align 1, !range !4, !noundef !5
  %11 = trunc nuw i8 %10 to i1
  tail call void @AcquireRewriteLocks(ptr noundef %9, i1 noundef zeroext %11, i1 noundef zeroext false)
  br label %12

12:                                               ; preds = %7, %4
  %13 = tail call zeroext i1 @expression_tree_walker_impl(ptr noundef nonnull %0, ptr noundef nonnull @acquireLocksOnSubLinks, ptr noundef %1) #10
  br label %14

14:                                               ; preds = %2, %12
  %.0 = phi i1 [ %13, %12 ], [ false, %2 ]
  ret i1 %.0
}